; Function Attrs: nofree norecurse nosync nounwind memory(readwrite, argmem: none, inaccessiblemem: none) uwtable
define void @stbvox_build_default_palette() local_unnamed_addr #0 {
  br label %1

1:                                                ; preds = %0, %1
  %indvars.iv = phi i64 [ 0, %0 ], [ %indvars.iv.next, %1 ]
  %2 = getelementptr inbounds nuw [64 x [3 x i8]], ptr @stbvox_default_palette_compact, i64 0, i64 %indvars.iv
  %3 = load i8, ptr %2, align 1, !tbaa !3
  %4 = uitofp i8 %3 to float
  %5 = fdiv float %4, 2.550000e+02
  %6 = getelementptr inbounds nuw [64 x [4 x float]], ptr @stbvox_default_palette, i64 0, i64 %indvars.iv
  store float %5, ptr %6, align 16, !tbaa !6
  %7 = getelementptr inbounds nuw i8, ptr %2, i64 1
  %8 = load i8, ptr %7, align 1, !tbaa !3
  %9 = uitofp i8 %8 to float
  %10 = fdiv float %9, 2.550000e+02
  %11 = getelementptr inbounds nuw i8, ptr %6, i64 4
  store float %10, ptr %11, align 4, !tbaa !6
  %12 = getelementptr inbounds nuw i8, ptr %2, i64 2
  %13 = load i8, ptr %12, align 1, !tbaa !3
  %14 = uitofp i8 %13 to float
  %15 = fdiv float %14, 2.550000e+02
  %16 = getelementptr inbounds nuw i8, ptr %6, i64 8
  store float %15, ptr %16, align 8, !tbaa !6
  %17 = getelementptr inbounds nuw i8, ptr %6, i64 12
  store float 1.000000e+00, ptr %17, align 4, !tbaa !6
  %indvars.iv.next = add nuw nsw i64 %indvars.iv, 1
  %exitcond.not = icmp eq i64 %indvars.iv.next, 64
  br i1 %exitcond.not, label %18, label %1, !llvm.loop !8

18:                                               ; preds = %1
  ret void
}